; ModuleID = '30/1094.c'
source_filename = "30/1094.c"
target datalayout = "e-m:e-p270:32:32-p271:32:32-p272:64:64-i64:64-f80:128-n8:16:32:64-S128"
target triple = "x86_64-pc-linux-gnu"

@.str = private unnamed_addr constant [3 x i8] c"%d\00", align 1

; Function Attrs: noinline nounwind uwtable
define dso_local i32 @main() #0 {
  %1 = alloca i32, align 4
  %2 = alloca i32, align 4
  %3 = alloca i32, align 4
  %4 = alloca i32, align 4
  %5 = alloca i32, align 4
  %6 = alloca i32, align 4
  %7 = alloca i32, align 4
  store i32 0, i32* %1, align 4
  %8 = call i32 (i8*, ...) @__isoc99_scanf(i8* getelementptr inbounds ([3 x i8], [3 x i8]* @.str, i64 0, i64 0), i32* %2)
  store i32 0, i32* %5, align 4
  store i32 1, i32* %3, align 4
  br label %9

9:                                                ; preds = %40, %0
  %10 = load i32, i32* %3, align 4
  %11 = load i32, i32* %2, align 4
  %12 = icmp sle i32 %10, %11
  br i1 %12, label %13, label %43

13:                                               ; preds = %9
  %14 = load i32, i32* %3, align 4
  store i32 %14, i32* %4, align 4
  %15 = load i32, i32* %3, align 4
  %16 = srem i32 %15, 7
  %17 = icmp eq i32 %16, 0
  br i1 %17, label %18, label %19

18:                                               ; preds = %13
  store i32 1, i32* %4, align 4
  br label %39

19:                                               ; preds = %13
  %20 = load i32, i32* %3, align 4
  %21 = srem i32 %20, 10
  store i32 %21, i32* %6, align 4
  %22 = load i32, i32* %3, align 4
  %23 = load i32, i32* %6, align 4
  %24 = sub nsw i32 %22, %23
  %25 = sdiv i32 %24, 10
  store i32 %25, i32* %7, align 4
  %26 = load i32, i32* %6, align 4
  %27 = icmp eq i32 %26, 7
  br i1 %27, label %31, label %28

28:                                               ; preds = %19
  %29 = load i32, i32* %7, align 4
  %30 = icmp eq i32 %29, 7
  br i1 %30, label %31, label %32

31:                                               ; preds = %28, %19
  store i32 1, i32* %4, align 4
  br label %38

32:                                               ; preds = %28
  %33 = load i32, i32* %5, align 4
  %34 = load i32, i32* %4, align 4
  %35 = load i32, i32* %4, align 4
  %36 = mul nsw i32 %34, %35
  %37 = add nsw i32 %33, %36
  store i32 %37, i32* %5, align 4
  br label %38

38:                                               ; preds = %32, %31
  br label %39

39:                                               ; preds = %38, %18
  br label %40

40:                                               ; preds = %39
  %41 = load i32, i32* %3, align 4
  %42 = add nsw i32 %41, 1
  store i32 %42, i32* %3, align 4
  br label %9

43:                                               ; preds = %9
  %44 = load i32, i32* %5, align 4
  %45 = call i32 (i8*, ...) @printf(i8* getelementptr inbounds ([3 x i8], [3 x i8]* @.str, i64 0, i64 0), i32 %44)
  ret i32 0
}

declare dso_local i32 @__isoc99_scanf(i8*, ...) #1

declare dso_local i32 @printf(i8*, ...) #1


!llvm.module.flags = !{!0}
!llvm.ident = !{!1}

!0 = !{i32 1, !"wchar_size", i32 4}
!1 = !{!"clang version 10.0.0-4ubuntu1 "}
